; Function Attrs: mustprogress uwtable
define hidden noundef i32 @_ZN3smt9theory_bv7get_varEPNS_5enodeE(ptr noundef nonnull align 8 dereferenceable(1048) %this, ptr noundef nonnull %n) local_unnamed_addr #3 align 2 {
entry:
  %m_id.i = getelementptr inbounds i8, ptr %this, i64 8
  %0 = load i32, ptr %m_id.i, align 8
  %call2 = tail call noundef i32 @_ZNK3smt5enode10get_th_varEi(ptr noundef nonnull align 8 dereferenceable(112) %n, i32 noundef %0)
  %cmp = icmp eq i32 %call2, -1
  br i1 %cmp, label %if.then, label %if.end

if.then:                                          ; preds = %entry
  %vtable = load ptr, ptr %this, align 8
  %1 = load ptr, ptr %vtable, align 8
  %call3 = tail call noundef i32 %1(ptr noundef nonnull align 8 dereferenceable(1048) %this, ptr noundef nonnull %n)
  tail call void @_ZN3smt9theory_bv7mk_bitsEi(ptr noundef nonnull align 8 dereferenceable(1048) %this, i32 noundef %call3)
  br label %if.end

if.end:                                           ; preds = %if.then, %entry
  %v.0 = phi i32 [ %call3, %if.then ], [ %call2, %entry ]
  ret i32 %v.0
}